target datalayout = "e-m:e-p270:32:32-p271:32:32-p272:64:64-i64:64-i128:128-f80:128-n8:16:32:64-S128"
target triple = "x86_64-pc-linux-gnu"

@.str.4 = private unnamed_addr constant [5 x i8] c"und_\00", align 1

; Function Attrs: mustprogress uwtable
define ptr @uloc_getDefault_77() #1 {
  %1 = call ptr @locale_get_default_77()
  ret ptr %1
}

; Function Attrs: inlinehint mustprogress nounwind uwtable
define internal noundef signext i8 @_ZL9U_FAILURE10UErrorCode(i32 noundef %0) #2 {
  %2 = alloca i32, align 4
  store i32 %0, ptr %2, align 4, !tbaa !15
  %3 = load i32, ptr %2, align 4, !tbaa !15
  %4 = icmp sgt i32 %3, 0
  %5 = zext i1 %4 to i8
  ret i8 %5
}

; Function Attrs: mustprogress uwtable
define void @_Z20ulocimp_getParent_77PKcRN6icu_778ByteSinkER10UErrorCode(ptr noundef %0, ptr noundef nonnull align 8 dereferenceable(8) %1, ptr noundef nonnull align 4 dereferenceable(4) %2) #1 {
  %4 = alloca ptr, align 8
  %5 = alloca ptr, align 8
  %6 = alloca ptr, align 8
  %7 = alloca ptr, align 8
  %8 = alloca i32, align 4
  store ptr %0, ptr %4, align 8, !tbaa !17
  store ptr %1, ptr %5, align 8, !tbaa !33
  store ptr %2, ptr %6, align 8, !tbaa !22
  %9 = load ptr, ptr %6, align 8, !tbaa !22
  %10 = load i32, ptr %9, align 4, !tbaa !15
  %11 = call noundef signext i8 @_ZL9U_FAILURE10UErrorCode(i32 noundef %10)
  %12 = icmp ne i8 %11, 0
  br i1 %12, label %13, label %14

13:                                               ; preds = %3
  br label %52

14:                                               ; preds = %3
  call void @llvm.lifetime.start.p0(i64 8, ptr %7) #11
  call void @llvm.lifetime.start.p0(i64 4, ptr %8) #11
  %15 = load ptr, ptr %4, align 8, !tbaa !17
  %16 = icmp eq ptr %15, null
  br i1 %16, label %17, label %19

17:                                               ; preds = %14
  %18 = call ptr @uloc_getDefault_77()
  store ptr %18, ptr %4, align 8, !tbaa !17
  br label %19

19:                                               ; preds = %17, %14
  %20 = load ptr, ptr %4, align 8, !tbaa !17
  %21 = call noundef ptr @strrchr(ptr noundef %20, i32 noundef 95) #14
  store ptr %21, ptr %7, align 8, !tbaa !17
  %22 = load ptr, ptr %7, align 8, !tbaa !17
  %23 = icmp ne ptr %22, null
  br i1 %23, label %24, label %31

24:                                               ; preds = %19
  %25 = load ptr, ptr %7, align 8, !tbaa !17
  %26 = load ptr, ptr %4, align 8, !tbaa !17
  %27 = ptrtoint ptr %25 to i64
  %28 = ptrtoint ptr %26 to i64
  %29 = sub i64 %27, %28
  %30 = trunc i64 %29 to i32
  store i32 %30, ptr %8, align 4, !tbaa !14
  br label %32

31:                                               ; preds = %19
  store i32 0, ptr %8, align 4, !tbaa !14
  br label %32

32:                                               ; preds = %31, %24
  %33 = load i32, ptr %8, align 4, !tbaa !14
  %34 = icmp sgt i32 %33, 0
  br i1 %34, label %35, label %51

35:                                               ; preds = %32
  %36 = load ptr, ptr %4, align 8, !tbaa !17
  %37 = call i32 @uprv_strnicmp_77(ptr noundef %36, ptr noundef @.str.4, i32 noundef 4)
  %38 = icmp eq i32 %37, 0
  br i1 %38, label %39, label %44

39:                                               ; preds = %35
  %40 = load ptr, ptr %4, align 8, !tbaa !17
  %41 = getelementptr inbounds i8, ptr %40, i64 3
  store ptr %41, ptr %4, align 8, !tbaa !17
  %42 = load i32, ptr %8, align 4, !tbaa !14
  %43 = sub nsw i32 %42, 3
  store i32 %43, ptr %8, align 4, !tbaa !14
  br label %44

44:                                               ; preds = %39, %35
  %45 = load ptr, ptr %5, align 8, !tbaa !33
  %46 = load ptr, ptr %4, align 8, !tbaa !17
  %47 = load i32, ptr %8, align 4, !tbaa !14
  %48 = load ptr, ptr %45, align 8, !tbaa !48
  %49 = getelementptr inbounds ptr, ptr %48, i64 2
  %50 = load ptr, ptr %49, align 8
  call void %50(ptr noundef nonnull align 8 dereferenceable(8) %45, ptr noundef %46, i32 noundef %47)
  br label %51

51:                                               ; preds = %44, %32
  call void @llvm.lifetime.end.p0(i64 4, ptr %8) #11
  call void @llvm.lifetime.end.p0(i64 8, ptr %7) #11
  br label %52

52:                                               ; preds = %51, %13
  ret void
}