; Function Attrs: mustprogress uwtable
define void @_Z20ulocimp_getParent_77PKcRN6icu_778ByteSinkER10UErrorCode(ptr noundef %0, ptr noundef nonnull align 8 dereferenceable(8) %1, ptr noundef nonnull readonly align 4 captures(none) dereferenceable(4) %2) local_unnamed_addr #1 {
  %4 = load i32, ptr %2, align 4, !tbaa !13
  %5 = icmp slt i32 %4, 1
  br i1 %5, label %6, label %24

6:                                                ; preds = %3
  %7 = icmp eq ptr %0, null
  br i1 %7, label %8, label %10

8:                                                ; preds = %6
  %9 = tail call ptr @locale_get_default_77()
  br label %10

10:                                               ; preds = %8, %6
  %.012 = phi ptr [ %9, %8 ], [ %0, %6 ]
  %11 = tail call noundef ptr @strrchr(ptr noundef nonnull dereferenceable(1) %.012, i32 noundef 95) #23
  %.not16 = icmp eq ptr %11, null
  %12 = ptrtoint ptr %11 to i64
  %13 = ptrtoint ptr %.012 to i64
  %14 = sub i64 %12, %13
  %15 = trunc i64 %14 to i32
  %.0 = select i1 %.not16, i32 0, i32 %15
  %16 = icmp sgt i32 %.0, 0
  br i1 %16, label %17, label %24

17:                                               ; preds = %10
  %18 = tail call i32 @uprv_strnicmp_77(ptr noundef nonnull %.012, ptr noundef nonnull @.str.4, i32 noundef 4)
  %19 = icmp eq i32 %18, 0
  %20 = add nsw i32 %.0, -3
  %.113.idx = select i1 %19, i64 3, i64 0
  %.113 = getelementptr inbounds nuw i8, ptr %.012, i64 %.113.idx
  %.1 = select i1 %19, i32 %20, i32 %.0
  %21 = load ptr, ptr %1, align 8, !tbaa !32
  %22 = getelementptr inbounds nuw i8, ptr %21, i64 16
  %23 = load ptr, ptr %22, align 8
  tail call void %23(ptr noundef nonnull align 8 dereferenceable(8) %1, ptr noundef nonnull %.113, i32 noundef %.1)
  br label %24

24:                                               ; preds = %10, %17, %3
  ret void
}